target datalayout = "e-m:e-p270:32:32-p271:32:32-p272:64:64-i64:64-i128:128-f80:128-n8:16:32:64-S128"
target triple = "x86_64-pc-linux-gnu"

%"class.bParse::bFile" = type <{ ptr, [7 x i8], i8, ptr, i32, i32, %class.b3HashMap, i32, [4 x i8], ptr, ptr, %class.b3AlignedObjectArray.4, %class.b3AlignedObjectArray.4, %class.b3AlignedObjectArray.6, %class.b3HashMap.8, %class.b3HashMap, i32, [4 x i8] }>
%class.b3AlignedObjectArray.4 = type <{ [4 x i8], i32, i32, [4 x i8], ptr, i8, [7 x i8] }>
%class.b3AlignedObjectArray.6 = type <{ [4 x i8], i32, i32, [4 x i8], ptr, i8, [7 x i8] }>
%class.b3HashMap.8 = type { %class.b3AlignedObjectArray, %class.b3AlignedObjectArray, %class.b3AlignedObjectArray.6, %class.b3AlignedObjectArray.2 }
%class.b3AlignedObjectArray = type <{ [4 x i8], i32, i32, [4 x i8], ptr, i8, [7 x i8] }>
%class.b3AlignedObjectArray.2 = type <{ [4 x i8], i32, i32, [4 x i8], ptr, i8, [7 x i8] }>
%class.b3HashMap = type { %class.b3AlignedObjectArray, %class.b3AlignedObjectArray, %class.b3AlignedObjectArray.0, %class.b3AlignedObjectArray.2 }
%class.b3AlignedObjectArray.0 = type <{ [4 x i8], i32, i32, [4 x i8], ptr, i8, [7 x i8] }>
%"class.bParse::bChunkInd" = type { i32, i32, ptr, i32, i32 }

@.str.31 = private unnamed_addr constant [10 x i8] c"%3d: %s  \00", align 1
@.str.32 = private unnamed_addr constant [10 x i8] c"code=%s  \00", align 1
@.str.33 = private unnamed_addr constant [9 x i8] c"ptr=%p  \00", align 1
@.str.34 = private unnamed_addr constant [9 x i8] c"len=%d  \00", align 1
@.str.35 = private unnamed_addr constant [8 x i8] c"nr=%d  \00", align 1
@.str.36 = private unnamed_addr constant [7 x i8] c"not 1\0A\00", align 1
@.str.37 = private unnamed_addr constant [2 x i8] c"\0A\00", align 1

; Function Attrs: inlinehint mustprogress nounwind uwtable
define linkonce_odr dso_local noundef nonnull align 8 dereferenceable(24) ptr @_ZN20b3AlignedObjectArrayIN6bParse9bChunkIndEEixEi(ptr noundef nonnull align 8 dereferenceable(25) %0, i32 noundef %1) #3 comdat align 2 {
  %3 = alloca ptr, align 8
  %4 = alloca i32, align 4
  store ptr %0, ptr %3, align 8, !tbaa !54
  store i32 %1, ptr %4, align 4, !tbaa !9
  %5 = load ptr, ptr %3, align 8
  %6 = getelementptr inbounds nuw %class.b3AlignedObjectArray.6, ptr %5, i32 0, i32 4
  %7 = load ptr, ptr %6, align 8, !tbaa !174
  %8 = load i32, ptr %4, align 4, !tbaa !9
  %9 = sext i32 %8 to i64
  %10 = getelementptr inbounds %"class.bParse::bChunkInd", ptr %7, i64 %9
  ret ptr %10
}

; Function Attrs: inlinehint mustprogress nounwind uwtable
define linkonce_odr dso_local noundef i32 @_ZNK20b3AlignedObjectArrayIN6bParse9bChunkIndEE4sizeEv(ptr noundef nonnull align 8 dereferenceable(25) %0) #3 comdat align 2 {
  %2 = alloca ptr, align 8
  store ptr %0, ptr %2, align 8, !tbaa !54
  %3 = load ptr, ptr %2, align 8
  %4 = getelementptr inbounds nuw %class.b3AlignedObjectArray.6, ptr %3, i32 0, i32 1
  %5 = load i32, ptr %4, align 4, !tbaa !173
  ret i32 %5
}

; Function Attrs: mustprogress uwtable
define dso_local void @_ZN6bParse5bFile10dumpChunksEPNS_4bDNAE(ptr noundef nonnull align 8 dereferenceable(540) %0, ptr noundef %1) #0 align 2 {
  %3 = alloca ptr, align 8
  %4 = alloca ptr, align 8
  %5 = alloca i32, align 4
  %6 = alloca ptr, align 8
  %7 = alloca ptr, align 8
  %8 = alloca [5 x i8], align 1
  %9 = alloca ptr, align 8
  %10 = alloca ptr, align 8
  store ptr %0, ptr %3, align 8, !tbaa !16
  store ptr %1, ptr %4, align 8, !tbaa !78
  %11 = load ptr, ptr %3, align 8
  call void @llvm.lifetime.start.p0(i64 4, ptr %5) #16
  store i32 0, ptr %5, align 4, !tbaa !9
  br label %12

12:                                               ; preds = %75, %2
  %13 = load i32, ptr %5, align 4, !tbaa !9
  %14 = getelementptr inbounds nuw %"class.bParse::bFile", ptr %11, i32 0, i32 13
  %15 = call noundef i32 @_ZNK20b3AlignedObjectArrayIN6bParse9bChunkIndEE4sizeEv(ptr noundef nonnull align 8 dereferenceable(25) %14)
  %16 = icmp slt i32 %13, %15
  br i1 %16, label %17, label %78

17:                                               ; preds = %12
  call void @llvm.lifetime.start.p0(i64 8, ptr %6) #16
  %18 = getelementptr inbounds nuw %"class.bParse::bFile", ptr %11, i32 0, i32 13
  %19 = load i32, ptr %5, align 4, !tbaa !9
  %20 = call noundef nonnull align 8 dereferenceable(24) ptr @_ZN20b3AlignedObjectArrayIN6bParse9bChunkIndEEixEi(ptr noundef nonnull align 8 dereferenceable(25) %18, i32 noundef %19)
  store ptr %20, ptr %6, align 8, !tbaa !66
  call void @llvm.lifetime.start.p0(i64 8, ptr %7) #16
  %21 = load ptr, ptr %6, align 8, !tbaa !66
  %22 = getelementptr inbounds nuw %"class.bParse::bChunkInd", ptr %21, i32 0, i32 0
  store ptr %22, ptr %7, align 8, !tbaa !4
  call void @llvm.lifetime.start.p0(i64 5, ptr %8) #16
  %23 = load ptr, ptr %7, align 8, !tbaa !4
  %24 = getelementptr inbounds i8, ptr %23, i64 0
  %25 = load i8, ptr %24, align 1, !tbaa !11
  store i8 %25, ptr %8, align 1, !tbaa !11
  %26 = getelementptr inbounds i8, ptr %8, i64 1
  %27 = load ptr, ptr %7, align 8, !tbaa !4
  %28 = getelementptr inbounds i8, ptr %27, i64 1
  %29 = load i8, ptr %28, align 1, !tbaa !11
  store i8 %29, ptr %26, align 1, !tbaa !11
  %30 = getelementptr inbounds i8, ptr %8, i64 2
  %31 = load ptr, ptr %7, align 8, !tbaa !4
  %32 = getelementptr inbounds i8, ptr %31, i64 2
  %33 = load i8, ptr %32, align 1, !tbaa !11
  store i8 %33, ptr %30, align 1, !tbaa !11
  %34 = getelementptr inbounds i8, ptr %8, i64 3
  %35 = load ptr, ptr %7, align 8, !tbaa !4
  %36 = getelementptr inbounds i8, ptr %35, i64 3
  %37 = load i8, ptr %36, align 1, !tbaa !11
  store i8 %37, ptr %34, align 1, !tbaa !11
  %38 = getelementptr inbounds i8, ptr %8, i64 4
  store i8 0, ptr %38, align 1, !tbaa !11
  call void @llvm.lifetime.start.p0(i64 8, ptr %9) #16
  %39 = load ptr, ptr %4, align 8, !tbaa !78
  %40 = load ptr, ptr %6, align 8, !tbaa !66
  %41 = getelementptr inbounds nuw %"class.bParse::bChunkInd", ptr %40, i32 0, i32 3
  %42 = load i32, ptr %41, align 8, !tbaa !79
  %43 = call noundef ptr @_ZN6bParse4bDNA9getStructEi(ptr noundef nonnull align 8 dereferenceable(420) %39, i32 noundef %42)
  store ptr %43, ptr %9, align 8, !tbaa !80
  call void @llvm.lifetime.start.p0(i64 8, ptr %10) #16
  %44 = load ptr, ptr %4, align 8, !tbaa !78
  %45 = load ptr, ptr %9, align 8, !tbaa !80
  %46 = getelementptr inbounds i16, ptr %45, i64 0
  %47 = load i16, ptr %46, align 2, !tbaa !82
  %48 = sext i16 %47 to i32
  %49 = call noundef ptr @_ZN6bParse4bDNA7getTypeEi(ptr noundef nonnull align 8 dereferenceable(420) %44, i32 noundef %48)
  store ptr %49, ptr %10, align 8, !tbaa !4
  %50 = load i32, ptr %5, align 4, !tbaa !9
  %51 = load ptr, ptr %10, align 8, !tbaa !4
  %52 = call i32 (ptr, ...) @printf(ptr noundef @.str.31, i32 noundef %50, ptr noundef %51)
  %53 = getelementptr inbounds [5 x i8], ptr %8, i64 0, i64 0
  %54 = call i32 (ptr, ...) @printf(ptr noundef @.str.32, ptr noundef %53)
  %55 = load ptr, ptr %6, align 8, !tbaa !66
  %56 = getelementptr inbounds nuw %"class.bParse::bChunkInd", ptr %55, i32 0, i32 2
  %57 = load ptr, ptr %56, align 8, !tbaa !61
  %58 = call i32 (ptr, ...) @printf(ptr noundef @.str.33, ptr noundef %57)
  %59 = load ptr, ptr %6, align 8, !tbaa !66
  %60 = getelementptr inbounds nuw %"class.bParse::bChunkInd", ptr %59, i32 0, i32 1
  %61 = load i32, ptr %60, align 4, !tbaa !63
  %62 = call i32 (ptr, ...) @printf(ptr noundef @.str.34, i32 noundef %61)
  %63 = load ptr, ptr %6, align 8, !tbaa !66
  %64 = getelementptr inbounds nuw %"class.bParse::bChunkInd", ptr %63, i32 0, i32 4
  %65 = load i32, ptr %64, align 4, !tbaa !86
  %66 = call i32 (ptr, ...) @printf(ptr noundef @.str.35, i32 noundef %65)
  %67 = load ptr, ptr %6, align 8, !tbaa !66
  %68 = getelementptr inbounds nuw %"class.bParse::bChunkInd", ptr %67, i32 0, i32 4
  %69 = load i32, ptr %68, align 4, !tbaa !86
  %70 = icmp ne i32 %69, 1
  br i1 %70, label %71, label %73

71:                                               ; preds = %17
  %72 = call i32 (ptr, ...) @printf(ptr noundef @.str.36)
  br label %73

73:                                               ; preds = %71, %17
  %74 = call i32 (ptr, ...) @printf(ptr noundef @.str.37)
  call void @llvm.lifetime.end.p0(i64 8, ptr %10) #16
  call void @llvm.lifetime.end.p0(i64 8, ptr %9) #16
  call void @llvm.lifetime.end.p0(i64 5, ptr %8) #16
  call void @llvm.lifetime.end.p0(i64 8, ptr %7) #16
  call void @llvm.lifetime.end.p0(i64 8, ptr %6) #16
  br label %75

75:                                               ; preds = %73
  %76 = load i32, ptr %5, align 4, !tbaa !9
  %77 = add nsw i32 %76, 1
  store i32 %77, ptr %5, align 4, !tbaa !9
  br label %12, !llvm.loop !175

78:                                               ; preds = %12
  call void @llvm.lifetime.end.p0(i64 4, ptr %5) #16
  ret void
}