; Function Attrs: mustprogress uwtable
define dso_local void @_ZN6bParse5bFile10dumpChunksEPNS_4bDNAE(ptr noundef nonnull readonly align 8 captures(none) dereferenceable(540) %0, ptr noundef %1) local_unnamed_addr #3 align 2 {
  %3 = alloca [5 x i8], align 1
  %4 = getelementptr inbounds nuw i8, ptr %0, i64 252
  %5 = load i32, ptr %4, align 4, !tbaa !54
  %6 = icmp sgt i32 %5, 0
  br i1 %6, label %.lr.ph, label %._crit_edge

.lr.ph:                                           ; preds = %2
  %7 = getelementptr inbounds nuw i8, ptr %0, i64 264
  %8 = getelementptr inbounds nuw i8, ptr %3, i64 1
  %9 = getelementptr inbounds nuw i8, ptr %3, i64 2
  %10 = getelementptr inbounds nuw i8, ptr %3, i64 3
  %11 = getelementptr inbounds nuw i8, ptr %3, i64 4
  br label %12

12:                                               ; preds = %.lr.ph, %42
  %indvars.iv = phi i64 [ 0, %.lr.ph ], [ %indvars.iv.next, %42 ]
  %13 = load ptr, ptr %7, align 8, !tbaa !53
  %14 = getelementptr inbounds nuw %"class.bParse::bChunkInd", ptr %13, i64 %indvars.iv
  call void @llvm.lifetime.start.p0(i64 5, ptr nonnull %3) #31
  %15 = load i8, ptr %14, align 1, !tbaa !4
  store i8 %15, ptr %3, align 1, !tbaa !4
  %16 = getelementptr inbounds nuw i8, ptr %14, i64 1
  %17 = load i8, ptr %16, align 1, !tbaa !4
  store i8 %17, ptr %8, align 1, !tbaa !4
  %18 = getelementptr inbounds nuw i8, ptr %14, i64 2
  %19 = load i8, ptr %18, align 1, !tbaa !4
  store i8 %19, ptr %9, align 1, !tbaa !4
  %20 = getelementptr inbounds nuw i8, ptr %14, i64 3
  %21 = load i8, ptr %20, align 1, !tbaa !4
  store i8 %21, ptr %10, align 1, !tbaa !4
  store i8 0, ptr %11, align 1, !tbaa !4
  %22 = getelementptr inbounds nuw i8, ptr %14, i64 16
  %23 = load i32, ptr %22, align 8, !tbaa !80
  %24 = call noundef ptr @_ZN6bParse4bDNA9getStructEi(ptr noundef nonnull align 8 dereferenceable(420) %1, i32 noundef %23)
  %25 = load i16, ptr %24, align 2, !tbaa !81
  %26 = sext i16 %25 to i32
  %27 = call noundef ptr @_ZN6bParse4bDNA7getTypeEi(ptr noundef nonnull align 8 dereferenceable(420) %1, i32 noundef %26)
  %28 = trunc nuw nsw i64 %indvars.iv to i32
  %29 = call i32 (ptr, ...) @printf(ptr noundef nonnull dereferenceable(1) @.str.31, i32 noundef %28, ptr noundef %27)
  %30 = call i32 (ptr, ...) @printf(ptr noundef nonnull dereferenceable(1) @.str.32, ptr noundef nonnull %3)
  %31 = getelementptr inbounds nuw i8, ptr %14, i64 8
  %32 = load ptr, ptr %31, align 8, !tbaa !66
  %33 = call i32 (ptr, ...) @printf(ptr noundef nonnull dereferenceable(1) @.str.33, ptr noundef %32)
  %34 = getelementptr inbounds nuw i8, ptr %14, i64 4
  %35 = load i32, ptr %34, align 4, !tbaa !68
  %36 = call i32 (ptr, ...) @printf(ptr noundef nonnull dereferenceable(1) @.str.34, i32 noundef %35)
  %37 = getelementptr inbounds nuw i8, ptr %14, i64 20
  %38 = load i32, ptr %37, align 4, !tbaa !84
  %39 = call i32 (ptr, ...) @printf(ptr noundef nonnull dereferenceable(1) @.str.35, i32 noundef %38)
  %40 = load i32, ptr %37, align 4, !tbaa !84
  %.not = icmp eq i32 %40, 1
  br i1 %.not, label %42, label %41

41:                                               ; preds = %12
  %puts = call i32 @puts(ptr nonnull dereferenceable(1) @str.3)
  br label %42

42:                                               ; preds = %41, %12
  %putchar = call i32 @putchar(i32 10)
  call void @llvm.lifetime.end.p0(i64 5, ptr nonnull %3) #31
  %indvars.iv.next = add nuw nsw i64 %indvars.iv, 1
  %43 = load i32, ptr %4, align 4, !tbaa !54
  %44 = sext i32 %43 to i64
  %45 = icmp slt i64 %indvars.iv.next, %44
  br i1 %45, label %12, label %._crit_edge, !llvm.loop !162

._crit_edge:                                      ; preds = %42, %2
  ret void
}